target datalayout = "e-m:e-p270:32:32-p271:32:32-p272:64:64-i64:64-i128:128-f80:128-n8:16:32:64-S128"
target triple = "x86_64-pc-linux-gnu"

@built_in_protos = dso_local global ptr @no_protos, align 8

; Function Attrs: nounwind uwtable
define dso_local ptr @proto_token(ptr noundef %0) #0 {
  %2 = alloca ptr, align 8
  %3 = alloca ptr, align 8
  %4 = alloca ptr, align 8
  %5 = alloca i32, align 4
  store ptr %0, ptr %3, align 8, !tbaa !17
  call void @llvm.lifetime.start.p0(i64 8, ptr %4) #4
  %6 = load ptr, ptr %3, align 8, !tbaa !17
  %7 = icmp ne ptr %6, null
  br i1 %7, label %9, label %8

8:                                                ; preds = %1
  store ptr null, ptr %2, align 8
  store i32 1, ptr %5, align 4
  br label %29

9:                                                ; preds = %1
  %10 = load ptr, ptr @built_in_protos, align 8, !tbaa !16
  store ptr %10, ptr %4, align 8, !tbaa !16
  br label %11

11:                                               ; preds = %23, %9
  %12 = load ptr, ptr %4, align 8, !tbaa !16
  %13 = load ptr, ptr %12, align 8, !tbaa !17
  %14 = icmp ne ptr %13, null
  br i1 %14, label %15, label %26

15:                                               ; preds = %11
  %16 = load ptr, ptr %4, align 8, !tbaa !16
  %17 = load ptr, ptr %16, align 8, !tbaa !17
  %18 = load ptr, ptr %3, align 8, !tbaa !17
  %19 = call i32 @curl_strequal(ptr noundef %17, ptr noundef %18)
  %20 = icmp ne i32 %19, 0
  br i1 %20, label %21, label %22

21:                                               ; preds = %15
  br label %26

22:                                               ; preds = %15
  br label %23

23:                                               ; preds = %22
  %24 = load ptr, ptr %4, align 8, !tbaa !16
  %25 = getelementptr inbounds nuw ptr, ptr %24, i32 1
  store ptr %25, ptr %4, align 8, !tbaa !16
  br label %11, !llvm.loop !43

26:                                               ; preds = %21, %11
  %27 = load ptr, ptr %4, align 8, !tbaa !16
  %28 = load ptr, ptr %27, align 8, !tbaa !17
  store ptr %28, ptr %2, align 8
  store i32 1, ptr %5, align 4
  br label %29

29:                                               ; preds = %26, %8
  call void @llvm.lifetime.end.p0(i64 8, ptr %4) #4
  %30 = load ptr, ptr %2, align 8
  ret ptr %30
}