; Function Attrs: nounwind uwtable
define dso_local ptr @proto_token(ptr noundef %0) local_unnamed_addr #0 {
  %.not = icmp eq ptr %0, null
  br i1 %.not, label %._crit_edge, label %2

2:                                                ; preds = %1
  %3 = load ptr, ptr @built_in_protos, align 8, !tbaa !15
  %4 = load ptr, ptr %3, align 8, !tbaa !16
  %.not1012 = icmp eq ptr %4, null
  br i1 %.not1012, label %._crit_edge, label %.lr.ph

.lr.ph:                                           ; preds = %2, %7
  %5 = phi ptr [ %9, %7 ], [ %4, %2 ]
  %.013 = phi ptr [ %8, %7 ], [ %3, %2 ]
  %6 = tail call i32 @curl_strequal(ptr noundef nonnull %5, ptr noundef nonnull %0) #3
  %.not11 = icmp eq i32 %6, 0
  br i1 %.not11, label %7, label %.lr.ph.._crit_edge.loopexit_crit_edge

.lr.ph.._crit_edge.loopexit_crit_edge:            ; preds = %.lr.ph
  %.pre.pre = load ptr, ptr %.013, align 8, !tbaa !16
  br label %._crit_edge

7:                                                ; preds = %.lr.ph
  %8 = getelementptr inbounds nuw i8, ptr %.013, i64 8
  %9 = load ptr, ptr %8, align 8, !tbaa !16
  %.not10 = icmp eq ptr %9, null
  br i1 %.not10, label %._crit_edge, label %.lr.ph, !llvm.loop !38

._crit_edge:                                      ; preds = %7, %2, %.lr.ph.._crit_edge.loopexit_crit_edge, %1
  %.07 = phi ptr [ null, %1 ], [ null, %2 ], [ %.pre.pre, %.lr.ph.._crit_edge.loopexit_crit_edge ], [ null, %7 ]
  ret ptr %.07
}